target datalayout = "e-m:e-p270:32:32-p271:32:32-p272:64:64-i64:64-i128:128-f80:128-n8:16:32:64-S128"
target triple = "x86_64-pc-linux-gnu"

; Function Attrs: mustprogress nounwind uwtable
define internal noundef i32 @_ZN10duckdb_lz4L13LZ4_isAlignedEPKvm(ptr noundef %0, i64 noundef %1) #0 {
  %3 = alloca ptr, align 8
  %4 = alloca i64, align 8
  store ptr %0, ptr %3, align 8, !tbaa !7
  store i64 %1, ptr %4, align 8, !tbaa !15
  %5 = load ptr, ptr %3, align 8, !tbaa !7
  %6 = ptrtoint ptr %5 to i64
  %7 = load i64, ptr %4, align 8, !tbaa !15
  %8 = sub i64 %7, 1
  %9 = and i64 %6, %8
  %10 = icmp eq i64 %9, 0
  %11 = zext i1 %10 to i32
  ret i32 %11
}

; Function Attrs: mustprogress nounwind uwtable
define internal noundef i64 @_ZN10duckdb_lz4L22LZ4_stream_t_alignmentEv() #0 {
  ret i64 8
}

; Function Attrs: mustprogress nounwind uwtable
define noundef i32 @_ZN10duckdb_lz417LZ4_compressBoundEi(i32 noundef %0) #0 {
  %2 = alloca i32, align 4
  store i32 %0, ptr %2, align 4, !tbaa !3
  %3 = load i32, ptr %2, align 4, !tbaa !3
  %4 = icmp ugt i32 %3, 2113929216
  br i1 %4, label %5, label %6

5:                                                ; preds = %1
  br label %12

6:                                                ; preds = %1
  %7 = load i32, ptr %2, align 4, !tbaa !3
  %8 = load i32, ptr %2, align 4, !tbaa !3
  %9 = sdiv i32 %8, 255
  %10 = add nsw i32 %7, %9
  %11 = add nsw i32 %10, 16
  br label %12

12:                                               ; preds = %6, %5
  %13 = phi i32 [ 0, %5 ], [ %11, %6 ]
  ret i32 %13
}

; Function Attrs: mustprogress uwtable
define noundef ptr @_ZN10duckdb_lz414LZ4_initStreamEPvm(ptr noundef %0, i64 noundef %1) #1 {
  %3 = alloca ptr, align 8
  %4 = alloca ptr, align 8
  %5 = alloca i64, align 8
  store ptr %0, ptr %4, align 8, !tbaa !7
  store i64 %1, ptr %5, align 8, !tbaa !15
  %6 = load ptr, ptr %4, align 8, !tbaa !7
  %7 = icmp eq ptr %6, null
  br i1 %7, label %8, label %9

8:                                                ; preds = %2
  store ptr null, ptr %3, align 8
  br label %22

9:                                                ; preds = %2
  %10 = load i64, ptr %5, align 8, !tbaa !15
  %11 = icmp ult i64 %10, 16416
  br i1 %11, label %12, label %13

12:                                               ; preds = %9
  store ptr null, ptr %3, align 8
  br label %22

13:                                               ; preds = %9
  %14 = load ptr, ptr %4, align 8, !tbaa !7
  %15 = call noundef i64 @_ZN10duckdb_lz4L22LZ4_stream_t_alignmentEv()
  %16 = call noundef i32 @_ZN10duckdb_lz4L13LZ4_isAlignedEPKvm(ptr noundef %14, i64 noundef %15)
  %17 = icmp ne i32 %16, 0
  br i1 %17, label %19, label %18

18:                                               ; preds = %13
  store ptr null, ptr %3, align 8
  br label %22

19:                                               ; preds = %13
  %20 = load ptr, ptr %4, align 8, !tbaa !7
  call void @llvm.memset.p0.i64(ptr align 1 %20, i8 0, i64 16416, i1 false)
  %21 = load ptr, ptr %4, align 8, !tbaa !7
  store ptr %21, ptr %3, align 8
  br label %22

22:                                               ; preds = %19, %18, %12, %8
  %23 = load ptr, ptr %3, align 8
  ret ptr %23
}

; Function Attrs: mustprogress uwtable
define noundef i32 @_ZN10duckdb_lz426LZ4_compress_fast_extStateEPvPKcPciii(ptr noundef %0, ptr noundef %1, ptr noundef %2, i32 noundef %3, i32 noundef %4, i32 noundef %5) #1 {
  %7 = alloca i32, align 4
  %8 = alloca ptr, align 8
  %9 = alloca ptr, align 8
  %10 = alloca ptr, align 8
  %11 = alloca i32, align 4
  %12 = alloca i32, align 4
  %13 = alloca i32, align 4
  %14 = alloca ptr, align 8
  %15 = alloca i32, align 4
  %16 = alloca i32, align 4
  %17 = alloca i32, align 4
  store ptr %0, ptr %8, align 8, !tbaa !7
  store ptr %1, ptr %9, align 8, !tbaa !9
  store ptr %2, ptr %10, align 8, !tbaa !9
  store i32 %3, ptr %11, align 4, !tbaa !3
  store i32 %4, ptr %12, align 4, !tbaa !3
  store i32 %5, ptr %13, align 4, !tbaa !3
  call void @llvm.lifetime.start.p0(i64 8, ptr %14) #9
  %18 = load ptr, ptr %8, align 8, !tbaa !7
  %19 = call noundef ptr @_ZN10duckdb_lz414LZ4_initStreamEPvm(ptr noundef %18, i64 noundef 16416)
  store ptr %19, ptr %14, align 8, !tbaa !11
  %20 = load i32, ptr %13, align 4, !tbaa !3
  %21 = icmp slt i32 %20, 1
  br i1 %21, label %22, label %23

22:                                               ; preds = %6
  store i32 1, ptr %13, align 4, !tbaa !3
  br label %23

23:                                               ; preds = %22, %6
  %24 = load i32, ptr %13, align 4, !tbaa !3
  %25 = icmp sgt i32 %24, 65537
  br i1 %25, label %26, label %27

26:                                               ; preds = %23
  store i32 65537, ptr %13, align 4, !tbaa !3
  br label %27

27:                                               ; preds = %26, %23
  %28 = load i32, ptr %12, align 4, !tbaa !3
  %29 = load i32, ptr %11, align 4, !tbaa !3
  %30 = call noundef i32 @_ZN10duckdb_lz417LZ4_compressBoundEi(i32 noundef %29)
  %31 = icmp sge i32 %28, %30
  br i1 %31, label %32, label %49

32:                                               ; preds = %27
  %33 = load i32, ptr %11, align 4, !tbaa !3
  %34 = icmp slt i32 %33, 65547
  br i1 %34, label %35, label %42

35:                                               ; preds = %32
  %36 = load ptr, ptr %14, align 8, !tbaa !11
  %37 = load ptr, ptr %9, align 8, !tbaa !9
  %38 = load ptr, ptr %10, align 8, !tbaa !9
  %39 = load i32, ptr %11, align 4, !tbaa !3
  %40 = load i32, ptr %13, align 4, !tbaa !3
  %41 = call noundef i32 @_ZN10duckdb_lz4L20LZ4_compress_genericEPNS_21LZ4_stream_t_internalEPKcPciPiiNS_23limitedOutput_directiveENS_11tableType_tENS_14dict_directiveENS_19dictIssue_directiveEi(ptr noundef %36, ptr noundef %37, ptr noundef %38, i32 noundef %39, ptr noundef null, i32 noundef 0, i32 noundef 0, i32 noundef 3, i32 noundef 0, i32 noundef 0, i32 noundef %40)
  store i32 %41, ptr %7, align 4
  store i32 1, ptr %15, align 4
  br label %68

42:                                               ; preds = %32
  call void @llvm.lifetime.start.p0(i64 4, ptr %16) #9
  store i32 2, ptr %16, align 4, !tbaa !13
  %43 = load ptr, ptr %14, align 8, !tbaa !11
  %44 = load ptr, ptr %9, align 8, !tbaa !9
  %45 = load ptr, ptr %10, align 8, !tbaa !9
  %46 = load i32, ptr %11, align 4, !tbaa !3
  %47 = load i32, ptr %13, align 4, !tbaa !3
  %48 = call noundef i32 @_ZN10duckdb_lz4L20LZ4_compress_genericEPNS_21LZ4_stream_t_internalEPKcPciPiiNS_23limitedOutput_directiveENS_11tableType_tENS_14dict_directiveENS_19dictIssue_directiveEi(ptr noundef %43, ptr noundef %44, ptr noundef %45, i32 noundef %46, ptr noundef null, i32 noundef 0, i32 noundef 0, i32 noundef 2, i32 noundef 0, i32 noundef 0, i32 noundef %47)
  store i32 %48, ptr %7, align 4
  store i32 1, ptr %15, align 4
  call void @llvm.lifetime.end.p0(i64 4, ptr %16) #9
  br label %68

49:                                               ; preds = %27
  %50 = load i32, ptr %11, align 4, !tbaa !3
  %51 = icmp slt i32 %50, 65547
  br i1 %51, label %52, label %60

52:                                               ; preds = %49
  %53 = load ptr, ptr %14, align 8, !tbaa !11
  %54 = load ptr, ptr %9, align 8, !tbaa !9
  %55 = load ptr, ptr %10, align 8, !tbaa !9
  %56 = load i32, ptr %11, align 4, !tbaa !3
  %57 = load i32, ptr %12, align 4, !tbaa !3
  %58 = load i32, ptr %13, align 4, !tbaa !3
  %59 = call noundef i32 @_ZN10duckdb_lz4L20LZ4_compress_genericEPNS_21LZ4_stream_t_internalEPKcPciPiiNS_23limitedOutput_directiveENS_11tableType_tENS_14dict_directiveENS_19dictIssue_directiveEi(ptr noundef %53, ptr noundef %54, ptr noundef %55, i32 noundef %56, ptr noundef null, i32 noundef %57, i32 noundef 1, i32 noundef 3, i32 noundef 0, i32 noundef 0, i32 noundef %58)
  store i32 %59, ptr %7, align 4
  store i32 1, ptr %15, align 4
  br label %68

60:                                               ; preds = %49
  call void @llvm.lifetime.start.p0(i64 4, ptr %17) #9
  store i32 2, ptr %17, align 4, !tbaa !13
  %61 = load ptr, ptr %14, align 8, !tbaa !11
  %62 = load ptr, ptr %9, align 8, !tbaa !9
  %63 = load ptr, ptr %10, align 8, !tbaa !9
  %64 = load i32, ptr %11, align 4, !tbaa !3
  %65 = load i32, ptr %12, align 4, !tbaa !3
  %66 = load i32, ptr %13, align 4, !tbaa !3
  %67 = call noundef i32 @_ZN10duckdb_lz4L20LZ4_compress_genericEPNS_21LZ4_stream_t_internalEPKcPciPiiNS_23limitedOutput_directiveENS_11tableType_tENS_14dict_directiveENS_19dictIssue_directiveEi(ptr noundef %61, ptr noundef %62, ptr noundef %63, i32 noundef %64, ptr noundef null, i32 noundef %65, i32 noundef 1, i32 noundef 2, i32 noundef 0, i32 noundef 0, i32 noundef %66)
  store i32 %67, ptr %7, align 4
  store i32 1, ptr %15, align 4
  call void @llvm.lifetime.end.p0(i64 4, ptr %17) #9
  br label %68

68:                                               ; preds = %60, %52, %42, %35
  call void @llvm.lifetime.end.p0(i64 8, ptr %14) #9
  %69 = load i32, ptr %7, align 4
  ret i32 %69
}