; Function Attrs: mustprogress nofree norecurse nosync nounwind memory(readwrite, inaccessiblemem: none) uwtable
define noundef i32 @_ZN10duckdb_lz426LZ4_compress_fast_extStateEPvPKcPciii(ptr noundef %0, ptr noundef %1, ptr noundef %2, i32 noundef %3, i32 noundef %4, i32 noundef %5) local_unnamed_addr #1 {
  %7 = icmp ne ptr %0, null
  %8 = ptrtoint ptr %0 to i64
  %9 = and i64 %8, 7
  %.not.i = icmp eq i64 %9, 0
  %or.cond7.i = and i1 %7, %.not.i
  br i1 %or.cond7.i, label %10, label %_ZN10duckdb_lz414LZ4_initStreamEPvm.exit

10:                                               ; preds = %6
  tail call void @llvm.memset.p0.i64(ptr noundef nonnull align 1 dereferenceable(16416) %0, i8 0, i64 16416, i1 false)
  br label %_ZN10duckdb_lz414LZ4_initStreamEPvm.exit

_ZN10duckdb_lz414LZ4_initStreamEPvm.exit:         ; preds = %6, %10
  %.0.i = phi ptr [ %0, %10 ], [ null, %6 ]
  %spec.store.select = tail call i32 @llvm.smax.i32(i32 %5, i32 1)
  %spec.store.select1 = tail call i32 @llvm.umin.i32(i32 %spec.store.select, i32 65537)
  %11 = icmp ugt i32 %3, 2113929216
  br i1 %11, label %_ZN10duckdb_lz417LZ4_compressBoundEi.exit, label %12

12:                                               ; preds = %_ZN10duckdb_lz414LZ4_initStreamEPvm.exit
  %13 = udiv i32 %3, 255
  %14 = add nuw nsw i32 %3, 16
  %15 = add nuw nsw i32 %14, %13
  br label %_ZN10duckdb_lz417LZ4_compressBoundEi.exit

_ZN10duckdb_lz417LZ4_compressBoundEi.exit:        ; preds = %_ZN10duckdb_lz414LZ4_initStreamEPvm.exit, %12
  %16 = phi i32 [ %15, %12 ], [ 0, %_ZN10duckdb_lz414LZ4_initStreamEPvm.exit ]
  %.not = icmp slt i32 %4, %16
  %17 = icmp slt i32 %3, 65547
  br i1 %.not, label %23, label %18

18:                                               ; preds = %_ZN10duckdb_lz417LZ4_compressBoundEi.exit
  br i1 %17, label %19, label %21

19:                                               ; preds = %18
  %20 = tail call fastcc noundef i32 @_ZN10duckdb_lz4L20LZ4_compress_genericEPNS_21LZ4_stream_t_internalEPKcPciPiiNS_23limitedOutput_directiveENS_11tableType_tENS_14dict_directiveENS_19dictIssue_directiveEi(ptr noundef %.0.i, ptr noundef %1, ptr noundef %2, i32 noundef %3, ptr noundef null, i32 noundef 0, i32 noundef 0, i32 noundef 3, i32 noundef 0, i32 noundef 0, i32 noundef %spec.store.select1)
  br label %28

21:                                               ; preds = %18
  %22 = tail call fastcc noundef i32 @_ZN10duckdb_lz4L20LZ4_compress_genericEPNS_21LZ4_stream_t_internalEPKcPciPiiNS_23limitedOutput_directiveENS_11tableType_tENS_14dict_directiveENS_19dictIssue_directiveEi(ptr noundef %.0.i, ptr noundef %1, ptr noundef %2, i32 noundef %3, ptr noundef null, i32 noundef 0, i32 noundef 0, i32 noundef 2, i32 noundef 0, i32 noundef 0, i32 noundef %spec.store.select1)
  br label %28

23:                                               ; preds = %_ZN10duckdb_lz417LZ4_compressBoundEi.exit
  br i1 %17, label %24, label %26

24:                                               ; preds = %23
  %25 = tail call fastcc noundef i32 @_ZN10duckdb_lz4L20LZ4_compress_genericEPNS_21LZ4_stream_t_internalEPKcPciPiiNS_23limitedOutput_directiveENS_11tableType_tENS_14dict_directiveENS_19dictIssue_directiveEi(ptr noundef %.0.i, ptr noundef %1, ptr noundef %2, i32 noundef %3, ptr noundef null, i32 noundef %4, i32 noundef 1, i32 noundef 3, i32 noundef 0, i32 noundef 0, i32 noundef %spec.store.select1)
  br label %28

26:                                               ; preds = %23
  %27 = tail call fastcc noundef i32 @_ZN10duckdb_lz4L20LZ4_compress_genericEPNS_21LZ4_stream_t_internalEPKcPciPiiNS_23limitedOutput_directiveENS_11tableType_tENS_14dict_directiveENS_19dictIssue_directiveEi(ptr noundef %.0.i, ptr noundef %1, ptr noundef %2, i32 noundef %3, ptr noundef null, i32 noundef %4, i32 noundef 1, i32 noundef 2, i32 noundef 0, i32 noundef 0, i32 noundef %spec.store.select1)
  br label %28

28:                                               ; preds = %26, %24, %21, %19
  %.0 = phi i32 [ %20, %19 ], [ %22, %21 ], [ %25, %24 ], [ %27, %26 ]
  ret i32 %.0
}